; Function Attrs: mustprogress uwtable
define void @_ZN28RpcServiceResponseTimeDialog23setDceRpcUuidAndVersionEP9_e_guid_ti(ptr noundef nonnull align 8 dereferenceable(316) %0, ptr noundef %1, i32 noundef %2) local_unnamed_addr #0 align 2 personality ptr @__gxx_personality_v0 {
  %4 = alloca %class.QString, align 8
  %5 = alloca %class.QVariant, align 8
  %6 = getelementptr inbounds i8, ptr %0, i64 256
  %7 = load ptr, ptr %6, align 8
  %8 = tail call noundef i32 @_ZNK9QComboBox5countEv(ptr noundef nonnull align 8 dereferenceable(40) %7)
  %9 = icmp sgt i32 %8, 0
  br i1 %9, label %.lr.ph, label %.loopexit

.lr.ph:                                           ; preds = %3
  %10 = getelementptr inbounds i8, ptr %0, i64 296
  br label %11

11:                                               ; preds = %.lr.ph, %50
  %.01531 = phi i32 [ 0, %.lr.ph ], [ %51, %50 ]
  %12 = load ptr, ptr %6, align 8
  call void @_ZNK9QComboBox8itemTextEi(ptr dead_on_unwind nonnull writable sret(%class.QString) align 8 %4, ptr noundef nonnull align 8 dereferenceable(40) %12, i32 noundef %.01531)
  %13 = invoke noundef nonnull align 8 dereferenceable(8) ptr @_ZN4QMapI7QStringP9_guid_keyEixERKS0_(ptr noundef nonnull align 8 dereferenceable(8) %10, ptr noundef nonnull align 8 dereferenceable(24) %4)
          to label %14 unwind label %37

14:                                               ; preds = %11
  %15 = load ptr, ptr %13, align 8
  %16 = invoke i32 @guid_cmp(ptr noundef %1, ptr noundef %15)
          to label %17 unwind label %37

17:                                               ; preds = %14
  %18 = icmp eq i32 %16, 0
  %19 = load ptr, ptr %4, align 8
  %.not.i.i.i = icmp eq ptr %19, null
  br i1 %.not.i.i.i, label %_ZN7QStringD2Ev.exit, label %_ZN17QArrayDataPointerIDsE5derefEv.exit.i.i

_ZN17QArrayDataPointerIDsE5derefEv.exit.i.i:      ; preds = %17
  %20 = atomicrmw sub ptr %19, i32 1 seq_cst, align 4
  %.not.i.i = icmp eq i32 %20, 1
  br i1 %.not.i.i, label %21, label %_ZN7QStringD2Ev.exit

21:                                               ; preds = %_ZN17QArrayDataPointerIDsE5derefEv.exit.i.i
  %22 = load ptr, ptr %4, align 8
  call void @_ZN10QArrayData10deallocateEPS_xx(ptr noundef %22, i64 noundef 2, i64 noundef 8) #19
  br label %_ZN7QStringD2Ev.exit

_ZN7QStringD2Ev.exit:                             ; preds = %17, %_ZN17QArrayDataPointerIDsE5derefEv.exit.i.i, %21
  br i1 %18, label %23, label %50

23:                                               ; preds = %_ZN7QStringD2Ev.exit
  %24 = load ptr, ptr %6, align 8
  call void @_ZN9QComboBox15setCurrentIndexEi(ptr noundef nonnull align 8 dereferenceable(40) %24, i32 noundef %.01531)
  %25 = getelementptr inbounds i8, ptr %0, i64 264
  %26 = load ptr, ptr %25, align 8
  %27 = call noundef i32 @_ZNK9QComboBox5countEv(ptr noundef nonnull align 8 dereferenceable(40) %26)
  %28 = icmp sgt i32 %27, 0
  br i1 %28, label %.lr.ph33, label %.loopexit

.lr.ph33:                                         ; preds = %23, %45
  %.032 = phi i32 [ %46, %45 ], [ 0, %23 ]
  %29 = load ptr, ptr %25, align 8
  call void @_ZNK9QComboBox8itemDataEii(ptr dead_on_unwind nonnull writable sret(%class.QVariant) align 8 %5, ptr noundef nonnull align 8 dereferenceable(40) %29, i32 noundef %.032, i32 noundef 256)
  %30 = invoke noundef i32 @_ZNK8QVariant6toUIntEPb(ptr noundef nonnull align 8 dereferenceable(32) %5, ptr noundef null)
          to label %31 unwind label %43

31:                                               ; preds = %.lr.ph33
  %32 = icmp eq i32 %30, %2
  call void @_ZN8QVariantD1Ev(ptr noundef nonnull align 8 dereferenceable(32) %5) #19
  br i1 %32, label %.critedge, label %45

.critedge:                                        ; preds = %31
  %33 = load ptr, ptr %25, align 8
  call void @_ZN9QComboBox15setCurrentIndexEi(ptr noundef nonnull align 8 dereferenceable(40) %33, i32 noundef %.032)
  %34 = load ptr, ptr %0, align 8
  %35 = getelementptr inbounds i8, ptr %34, i64 520
  %36 = load ptr, ptr %35, align 8
  call void %36(ptr noundef nonnull align 8 dereferenceable(248) %0)
  br label %.loopexit

37:                                               ; preds = %14, %11
  %38 = landingpad { ptr, i32 }
          cleanup
  %39 = load ptr, ptr %4, align 8
  %.not.i.i.i18 = icmp eq ptr %39, null
  br i1 %.not.i.i.i18, label %_ZN7QStringD2Ev.exit21, label %_ZN17QArrayDataPointerIDsE5derefEv.exit.i.i19

_ZN17QArrayDataPointerIDsE5derefEv.exit.i.i19:    ; preds = %37
  %40 = atomicrmw sub ptr %39, i32 1 seq_cst, align 4
  %.not.i.i20 = icmp eq i32 %40, 1
  br i1 %.not.i.i20, label %41, label %_ZN7QStringD2Ev.exit21

41:                                               ; preds = %_ZN17QArrayDataPointerIDsE5derefEv.exit.i.i19
  %42 = load ptr, ptr %4, align 8
  call void @_ZN10QArrayData10deallocateEPS_xx(ptr noundef %42, i64 noundef 2, i64 noundef 8) #19
  br label %_ZN7QStringD2Ev.exit21

43:                                               ; preds = %.lr.ph33
  %44 = landingpad { ptr, i32 }
          cleanup
  call void @_ZN8QVariantD1Ev(ptr noundef nonnull align 8 dereferenceable(32) %5) #19
  br label %_ZN7QStringD2Ev.exit21

45:                                               ; preds = %31
  %46 = add nuw nsw i32 %.032, 1
  %47 = load ptr, ptr %25, align 8
  %48 = call noundef i32 @_ZNK9QComboBox5countEv(ptr noundef nonnull align 8 dereferenceable(40) %47)
  %49 = icmp slt i32 %46, %48
  br i1 %49, label %.lr.ph33, label %.loopexit, !llvm.loop !26

50:                                               ; preds = %_ZN7QStringD2Ev.exit
  %51 = add nuw nsw i32 %.01531, 1
  %52 = load ptr, ptr %6, align 8
  %53 = call noundef i32 @_ZNK9QComboBox5countEv(ptr noundef nonnull align 8 dereferenceable(40) %52)
  %54 = icmp slt i32 %51, %53
  br i1 %54, label %11, label %.loopexit, !llvm.loop !27

.loopexit:                                        ; preds = %50, %45, %3, %23, %.critedge
  ret void

_ZN7QStringD2Ev.exit21:                           ; preds = %41, %_ZN17QArrayDataPointerIDsE5derefEv.exit.i.i19, %37, %43
  %.pn = phi { ptr, i32 } [ %44, %43 ], [ %38, %37 ], [ %38, %_ZN17QArrayDataPointerIDsE5derefEv.exit.i.i19 ], [ %38, %41 ]
  resume { ptr, i32 } %.pn
}